target datalayout = "e-m:e-p270:32:32-p271:32:32-p272:64:64-i64:64-i128:128-f80:128-n8:16:32:64-S128"
target triple = "x86_64-pc-linux-gnu"

%struct.VuVirtqInflightDesc = type { i16, i64 }

; Function Attrs: nounwind uwtable
define internal i32 @inflight_desc_compare(ptr noundef %0, ptr noundef %1) #0 {
  %3 = alloca i32, align 4
  %4 = alloca ptr, align 8
  %5 = alloca ptr, align 8
  %6 = alloca ptr, align 8
  %7 = alloca ptr, align 8
  %8 = alloca i32, align 4
  store ptr %0, ptr %4, align 8
  store ptr %1, ptr %5, align 8
  call void @llvm.lifetime.start.p0(i64 8, ptr %6) #13
  %9 = load ptr, ptr %4, align 8
  store ptr %9, ptr %6, align 8
  call void @llvm.lifetime.start.p0(i64 8, ptr %7) #13
  %10 = load ptr, ptr %5, align 8
  store ptr %10, ptr %7, align 8
  %11 = load ptr, ptr %7, align 8
  %12 = getelementptr inbounds nuw %struct.VuVirtqInflightDesc, ptr %11, i32 0, i32 1
  %13 = load i64, ptr %12, align 8
  %14 = load ptr, ptr %6, align 8
  %15 = getelementptr inbounds nuw %struct.VuVirtqInflightDesc, ptr %14, i32 0, i32 1
  %16 = load i64, ptr %15, align 8
  %17 = icmp ugt i64 %13, %16
  br i1 %17, label %18, label %28

18:                                               ; preds = %2
  %19 = load ptr, ptr %7, align 8
  %20 = getelementptr inbounds nuw %struct.VuVirtqInflightDesc, ptr %19, i32 0, i32 1
  %21 = load i64, ptr %20, align 8
  %22 = load ptr, ptr %6, align 8
  %23 = getelementptr inbounds nuw %struct.VuVirtqInflightDesc, ptr %22, i32 0, i32 1
  %24 = load i64, ptr %23, align 8
  %25 = sub i64 %21, %24
  %26 = icmp ult i64 %25, 2048
  br i1 %26, label %27, label %28

27:                                               ; preds = %18
  store i32 1, ptr %3, align 4
  store i32 1, ptr %8, align 4
  br label %29

28:                                               ; preds = %18, %2
  store i32 -1, ptr %3, align 4
  store i32 1, ptr %8, align 4
  br label %29

29:                                               ; preds = %28, %27
  call void @llvm.lifetime.end.p0(i64 8, ptr %7) #13
  call void @llvm.lifetime.end.p0(i64 8, ptr %6) #13
  %30 = load i32, ptr %3, align 4
  ret i32 %30
}