; Function Attrs: mustprogress nofree norecurse nosync nounwind willreturn memory(argmem: read) uwtable
define internal range(i32 -1, 2) i32 @inflight_desc_compare(ptr noundef readonly captures(none) %0, ptr noundef readonly captures(none) %1) #11 {
  %3 = getelementptr inbounds nuw i8, ptr %1, i64 8
  %4 = load i64, ptr %3, align 8
  %5 = getelementptr inbounds nuw i8, ptr %0, i64 8
  %6 = load i64, ptr %5, align 8
  %7 = icmp ugt i64 %4, %6
  %8 = sub nuw i64 %4, %6
  %9 = icmp ult i64 %8, 2048
  %or.cond = select i1 %7, i1 %9, i1 false
  %.0 = select i1 %or.cond, i32 1, i32 -1
  ret i32 %.0
}